; ModuleID = '2/11.c'
source_filename = "2/11.c"
target datalayout = "e-m:e-p270:32:32-p271:32:32-p272:64:64-i64:64-f80:128-n8:16:32:64-S128"
target triple = "x86_64-pc-linux-gnu"

%struct.books = type { i32, [26 x i8] }

@.str = private unnamed_addr constant [4 x i8] c"%d\0A\00", align 1
@.str.1 = private unnamed_addr constant [6 x i8] c"%d %s\00", align 1
@.str.2 = private unnamed_addr constant [7 x i8] c"%c\0A%d\0A\00", align 1

; Function Attrs: noinline nounwind uwtable
define dso_local void @main() #0 {
  %1 = alloca [999 x i32], align 16
  %2 = alloca i32, align 4
  %3 = alloca i32, align 4
  %4 = alloca i32, align 4
  %5 = alloca [26 x i32], align 16
  %6 = alloca i32, align 4
  %7 = alloca i32, align 4
  %8 = alloca i32, align 4
  %9 = alloca [999 x %struct.books], align 16
  store i32 0, i32* %6, align 4
  %10 = call i32 (i8*, ...) @__isoc99_scanf(i8* getelementptr inbounds ([4 x i8], [4 x i8]* @.str, i64 0, i64 0), i32* %2)
  store i32 0, i32* %8, align 4
  br label %11

11:                                               ; preds = %18, %0
  %12 = load i32, i32* %8, align 4
  %13 = icmp slt i32 %12, 26
  br i1 %13, label %14, label %21

14:                                               ; preds = %11
  %15 = load i32, i32* %8, align 4
  %16 = sext i32 %15 to i64
  %17 = getelementptr inbounds [26 x i32], [26 x i32]* %5, i64 0, i64 %16
  store i32 0, i32* %17, align 4
  br label %18

18:                                               ; preds = %14
  %19 = load i32, i32* %8, align 4
  %20 = add nsw i32 %19, 1
  store i32 %20, i32* %8, align 4
  br label %11

21:                                               ; preds = %11
  store i32 0, i32* %3, align 4
  br label %22

22:                                               ; preds = %37, %21
  %23 = load i32, i32* %3, align 4
  %24 = load i32, i32* %2, align 4
  %25 = icmp slt i32 %23, %24
  br i1 %25, label %26, label %40

26:                                               ; preds = %22
  %27 = load i32, i32* %3, align 4
  %28 = sext i32 %27 to i64
  %29 = getelementptr inbounds [999 x %struct.books], [999 x %struct.books]* %9, i64 0, i64 %28
  %30 = getelementptr inbounds %struct.books, %struct.books* %29, i32 0, i32 0
  %31 = load i32, i32* %3, align 4
  %32 = sext i32 %31 to i64
  %33 = getelementptr inbounds [999 x %struct.books], [999 x %struct.books]* %9, i64 0, i64 %32
  %34 = getelementptr inbounds %struct.books, %struct.books* %33, i32 0, i32 1
  %35 = getelementptr inbounds [26 x i8], [26 x i8]* %34, i64 0, i64 0
  %36 = call i32 (i8*, ...) @__isoc99_scanf(i8* getelementptr inbounds ([6 x i8], [6 x i8]* @.str.1, i64 0, i64 0), i32* %30, i8* %35)
  br label %37

37:                                               ; preds = %26
  %38 = load i32, i32* %3, align 4
  %39 = add nsw i32 %38, 1
  store i32 %39, i32* %3, align 4
  br label %22

40:                                               ; preds = %22
  store i32 0, i32* %3, align 4
  br label %41

41:                                               ; preds = %75, %40
  %42 = load i32, i32* %3, align 4
  %43 = load i32, i32* %2, align 4
  %44 = icmp slt i32 %42, %43
  br i1 %44, label %45, label %78

45:                                               ; preds = %41
  store i32 0, i32* %4, align 4
  br label %46

46:                                               ; preds = %71, %45
  %47 = load i32, i32* %4, align 4
  %48 = sext i32 %47 to i64
  %49 = load i32, i32* %3, align 4
  %50 = sext i32 %49 to i64
  %51 = getelementptr inbounds [999 x %struct.books], [999 x %struct.books]* %9, i64 0, i64 %50
  %52 = getelementptr inbounds %struct.books, %struct.books* %51, i32 0, i32 1
  %53 = getelementptr inbounds [26 x i8], [26 x i8]* %52, i64 0, i64 0
  %54 = call i64 @strlen(i8* %53) #3
  %55 = icmp ult i64 %48, %54
  br i1 %55, label %56, label %74

56:                                               ; preds = %46
  %57 = load i32, i32* %3, align 4
  %58 = sext i32 %57 to i64
  %59 = getelementptr inbounds [999 x %struct.books], [999 x %struct.books]* %9, i64 0, i64 %58
  %60 = getelementptr inbounds %struct.books, %struct.books* %59, i32 0, i32 1
  %61 = load i32, i32* %4, align 4
  %62 = sext i32 %61 to i64
  %63 = getelementptr inbounds [26 x i8], [26 x i8]* %60, i64 0, i64 %62
  %64 = load i8, i8* %63, align 1
  %65 = sext i8 %64 to i32
  %66 = sub nsw i32 %65, 65
  %67 = sext i32 %66 to i64
  %68 = getelementptr inbounds [26 x i32], [26 x i32]* %5, i64 0, i64 %67
  %69 = load i32, i32* %68, align 4
  %70 = add nsw i32 %69, 1
  store i32 %70, i32* %68, align 4
  br label %71

71:                                               ; preds = %56
  %72 = load i32, i32* %4, align 4
  %73 = add nsw i32 %72, 1
  store i32 %73, i32* %4, align 4
  br label %46

74:                                               ; preds = %46
  br label %75

75:                                               ; preds = %74
  %76 = load i32, i32* %3, align 4
  %77 = add nsw i32 %76, 1
  store i32 %77, i32* %3, align 4
  br label %41

78:                                               ; preds = %41
  store i32 0, i32* %8, align 4
  br label %79

79:                                               ; preds = %96, %78
  %80 = load i32, i32* %8, align 4
  %81 = icmp slt i32 %80, 26
  br i1 %81, label %82, label %99

82:                                               ; preds = %79
  %83 = load i32, i32* %8, align 4
  %84 = sext i32 %83 to i64
  %85 = getelementptr inbounds [26 x i32], [26 x i32]* %5, i64 0, i64 %84
  %86 = load i32, i32* %85, align 4
  %87 = load i32, i32* %6, align 4
  %88 = icmp sgt i32 %86, %87
  br i1 %88, label %89, label %95

89:                                               ; preds = %82
  %90 = load i32, i32* %8, align 4
  %91 = sext i32 %90 to i64
  %92 = getelementptr inbounds [26 x i32], [26 x i32]* %5, i64 0, i64 %91
  %93 = load i32, i32* %92, align 4
  store i32 %93, i32* %6, align 4
  %94 = load i32, i32* %8, align 4
  store i32 %94, i32* %7, align 4
  br label %95

95:                                               ; preds = %89, %82
  br label %96

96:                                               ; preds = %95
  %97 = load i32, i32* %8, align 4
  %98 = add nsw i32 %97, 1
  store i32 %98, i32* %8, align 4
  br label %79

99:                                               ; preds = %79
  %100 = load i32, i32* %7, align 4
  %101 = add nsw i32 %100, 65
  %102 = load i32, i32* %6, align 4
  %103 = call i32 (i8*, ...) @printf(i8* getelementptr inbounds ([7 x i8], [7 x i8]* @.str.2, i64 0, i64 0), i32 %101, i32 %102)
  store i32 0, i32* %3, align 4
  br label %104

104:                                              ; preds = %144, %99
  %105 = load i32, i32* %3, align 4
  %106 = load i32, i32* %2, align 4
  %107 = icmp slt i32 %105, %106
  br i1 %107, label %108, label %147

108:                                              ; preds = %104
  store i32 0, i32* %4, align 4
  br label %109

109:                                              ; preds = %140, %108
  %110 = load i32, i32* %4, align 4
  %111 = sext i32 %110 to i64
  %112 = load i32, i32* %3, align 4
  %113 = sext i32 %112 to i64
  %114 = getelementptr inbounds [999 x %struct.books], [999 x %struct.books]* %9, i64 0, i64 %113
  %115 = getelementptr inbounds %struct.books, %struct.books* %114, i32 0, i32 1
  %116 = getelementptr inbounds [26 x i8], [26 x i8]* %115, i64 0, i64 0
  %117 = call i64 @strlen(i8* %116) #3
  %118 = icmp ult i64 %111, %117
  br i1 %118, label %119, label %143

119:                                              ; preds = %109
  %120 = load i32, i32* %3, align 4
  %121 = sext i32 %120 to i64
  %122 = getelementptr inbounds [999 x %struct.books], [999 x %struct.books]* %9, i64 0, i64 %121
  %123 = getelementptr inbounds %struct.books, %struct.books* %122, i32 0, i32 1
  %124 = load i32, i32* %4, align 4
  %125 = sext i32 %124 to i64
  %126 = getelementptr inbounds [26 x i8], [26 x i8]* %123, i64 0, i64 %125
  %127 = load i8, i8* %126, align 1
  %128 = sext i8 %127 to i32
  %129 = load i32, i32* %7, align 4
  %130 = add nsw i32 %129, 65
  %131 = icmp eq i32 %128, %130
  br i1 %131, label %132, label %139

132:                                              ; preds = %119
  %133 = load i32, i32* %3, align 4
  %134 = sext i32 %133 to i64
  %135 = getelementptr inbounds [999 x %struct.books], [999 x %struct.books]* %9, i64 0, i64 %134
  %136 = getelementptr inbounds %struct.books, %struct.books* %135, i32 0, i32 0
  %137 = load i32, i32* %136, align 16
  %138 = call i32 (i8*, ...) @printf(i8* getelementptr inbounds ([4 x i8], [4 x i8]* @.str, i64 0, i64 0), i32 %137)
  br label %143

139:                                              ; preds = %119
  br label %140

140:                                              ; preds = %139
  %141 = load i32, i32* %4, align 4
  %142 = add nsw i32 %141, 1
  store i32 %142, i32* %4, align 4
  br label %109

143:                                              ; preds = %132, %109
  br label %144

144:                                              ; preds = %143
  %145 = load i32, i32* %3, align 4
  %146 = add nsw i32 %145, 1
  store i32 %146, i32* %3, align 4
  br label %104

147:                                              ; preds = %104
  ret void
}

declare dso_local i32 @__isoc99_scanf(i8*, ...) #1

; Function Attrs: nounwind readonly
declare dso_local i64 @strlen(i8*) #2

declare dso_local i32 @printf(i8*, ...) #1


!llvm.module.flags = !{!0}
!llvm.ident = !{!1}

!0 = !{i32 1, !"wchar_size", i32 4}
!1 = !{!"clang version 10.0.0-4ubuntu1 "}
